; Function Attrs: mustprogress uwtable
define void @_ZN8facebook5velox6memory14MemoryPoolImpl18testingSetCapacityEl(ptr noundef nonnull align 8 dereferenceable(480) %this, i64 noundef %bytes) local_unnamed_addr #0 align 2 personality ptr @__gxx_personality_v0 {
entry:
  br label %tailrecurse

tailrecurse:                                      ; preds = %tailrecurse, %entry
  %this.tr = phi ptr [ %this, %entry ], [ %0, %tailrecurse ]
  %parent_ = getelementptr inbounds i8, ptr %this.tr, i64 64
  %0 = load ptr, ptr %parent_, align 8
  %cmp.i.i.not = icmp eq ptr %0, null
  br i1 %cmp.i.i.not, label %if.end, label %tailrecurse

if.end:                                           ; preds = %tailrecurse
  %mutex_ = getelementptr inbounds i8, ptr %this.tr, i64 248
  %call1.i.i.i = tail call noundef i32 @pthread_mutex_lock(ptr noundef nonnull %mutex_) #26
  %tobool.not.i.i = icmp eq i32 %call1.i.i.i, 0
  br i1 %tobool.not.i.i, label %_ZNSt10lock_guardISt5mutexEC2ERS0_.exit, label %if.then.i.i

if.then.i.i:                                      ; preds = %if.end
  tail call void @_ZSt20__throw_system_errori(i32 noundef %call1.i.i.i) #29
  unreachable

_ZNSt10lock_guardISt5mutexEC2ERS0_.exit:          ; preds = %if.end
  %capacity_ = getelementptr inbounds i8, ptr %this.tr, i64 296
  store i64 %bytes, ptr %capacity_, align 8
  %call1.i.i.i2 = tail call noundef i32 @pthread_mutex_unlock(ptr noundef nonnull %mutex_) #26
  ret void
}